target datalayout = "e-m:e-p270:32:32-p271:32:32-p272:64:64-i64:64-i128:128-f80:128-n8:16:32:64-S128"
target triple = "x86_64-pc-linux-gnu"

%union.anon.21 = type { double }

@.str.20 = private unnamed_addr constant [6 x i8] c"Float\00", align 1

; Function Attrs: inlinehint nounwind sspstrong willreturn memory(none) uwtable
define internal zeroext i1 @RB_IMMEDIATE_P(i64 noundef %0) #1 {
  %2 = alloca i64, align 8
  store i64 %0, ptr %2, align 8, !tbaa !11
  %3 = load i64, ptr %2, align 8, !tbaa !11
  %4 = and i64 %3, 7
  %5 = icmp ne i64 %4, 0
  ret i1 %5
}

; Function Attrs: inlinehint nounwind sspstrong uwtable
define internal i64 @RUBY_BIT_ROTL(i64 noundef %0, i32 noundef %1) #2 {
  %3 = alloca i64, align 8
  %4 = alloca i32, align 4
  store i64 %0, ptr %3, align 8, !tbaa !11
  store i32 %1, ptr %4, align 4, !tbaa !7
  %5 = load i64, ptr %3, align 8, !tbaa !11
  %6 = load i32, ptr %4, align 4, !tbaa !7
  %7 = sext i32 %6 to i64
  %8 = call i64 @llvm.fshl.i64(i64 %5, i64 %5, i64 %7)
  ret i64 %8
}

; Function Attrs: inlinehint nounwind sspstrong willreturn memory(none) uwtable
define internal zeroext i1 @RB_SPECIAL_CONST_P(i64 noundef %0) #1 {
  %2 = alloca i64, align 8
  store i64 %0, ptr %2, align 8, !tbaa !11
  %3 = load i64, ptr %2, align 8, !tbaa !11
  %4 = icmp eq i64 %3, 0
  br i1 %4, label %8, label %5

5:                                                ; preds = %1
  %6 = load i64, ptr %2, align 8, !tbaa !11
  %7 = call zeroext i1 @RB_IMMEDIATE_P(i64 noundef %6) #27
  br label %8

8:                                                ; preds = %5, %1
  %9 = phi i1 [ true, %1 ], [ %7, %5 ]
  ret i1 %9
}

; Function Attrs: nounwind sspstrong uwtable
define dso_local double @rb_str_to_dbl(i64 noundef %0, i32 noundef %1) #0 {
  %3 = alloca i64, align 8
  %4 = alloca i32, align 4
  store i64 %0, ptr %3, align 8, !tbaa !11
  store i32 %1, ptr %4, align 4, !tbaa !7
  %5 = load i64, ptr %3, align 8, !tbaa !11
  %6 = load i32, ptr %4, align 4, !tbaa !7
  %7 = call double @rb_str_to_dbl_raise(i64 noundef %5, i32 noundef %6, i32 noundef 1, ptr noundef null)
  ret double %7
}

; Function Attrs: inlinehint nounwind sspstrong uwtable
define internal i64 @rb_float_new_inline(double noundef %0) #2 {
  %2 = alloca i64, align 8
  %3 = alloca double, align 8
  %4 = alloca %union.anon.21, align 8
  %5 = alloca i32, align 4
  %6 = alloca i32, align 4
  store double %0, ptr %3, align 8, !tbaa !83
  call void @llvm.lifetime.start.p0(i64 8, ptr %4) #28
  call void @llvm.lifetime.start.p0(i64 4, ptr %5) #28
  %7 = load double, ptr %3, align 8, !tbaa !83
  store double %7, ptr %4, align 8, !tbaa !42
  %8 = load i64, ptr %4, align 8, !tbaa !42
  %9 = lshr i64 %8, 60
  %10 = and i64 %9, 7
  %11 = trunc i64 %10 to i32
  store i32 %11, ptr %5, align 4, !tbaa !7
  %12 = load i64, ptr %4, align 8, !tbaa !42
  %13 = icmp ne i64 %12, 3458764513820540928
  br i1 %13, label %14, label %24

14:                                               ; preds = %1
  %15 = load i32, ptr %5, align 4, !tbaa !7
  %16 = sub i32 %15, 3
  %17 = and i32 %16, -2
  %18 = icmp ne i32 %17, 0
  br i1 %18, label %24, label %19

19:                                               ; preds = %14
  %20 = load i64, ptr %4, align 8, !tbaa !42
  %21 = call i64 @RUBY_BIT_ROTL(i64 noundef %20, i32 noundef 3)
  %22 = and i64 %21, -2
  %23 = or i64 %22, 2
  store i64 %23, ptr %2, align 8
  store i32 1, ptr %6, align 4
  br label %32

24:                                               ; preds = %14, %1
  %25 = load i64, ptr %4, align 8, !tbaa !42
  %26 = icmp eq i64 %25, 0
  br i1 %26, label %27, label %28

27:                                               ; preds = %24
  store i64 -9223372036854775806, ptr %2, align 8
  store i32 1, ptr %6, align 4
  br label %32

28:                                               ; preds = %24
  br label %29

29:                                               ; preds = %28
  %30 = load double, ptr %3, align 8, !tbaa !83
  %31 = call i64 @rb_float_new_in_heap(double noundef %30)
  store i64 %31, ptr %2, align 8
  store i32 1, ptr %6, align 4
  br label %32

32:                                               ; preds = %29, %27, %19
  call void @llvm.lifetime.end.p0(i64 4, ptr %5) #28
  call void @llvm.lifetime.end.p0(i64 8, ptr %4) #28
  %33 = load i64, ptr %2, align 8
  ret i64 %33
}

; Function Attrs: nounwind sspstrong uwtable
define internal i64 @rb_convert_to_float(i64 noundef %0, i32 noundef %1) #0 {
  %3 = alloca i64, align 8
  %4 = alloca i64, align 8
  %5 = alloca i32, align 4
  %6 = alloca i32, align 4
  %7 = alloca double, align 8
  %8 = alloca i32, align 4
  %9 = alloca i64, align 8
  store i64 %0, ptr %4, align 8, !tbaa !11
  store i32 %1, ptr %5, align 4, !tbaa !7
  %10 = load i32, ptr %5, align 4, !tbaa !7
  %11 = call i32 @to_float(ptr noundef %4, i32 noundef %10)
  switch i32 %11, label %41 [
    i32 4, label %12
    i32 5, label %14
    i32 0, label %33
  ]

12:                                               ; preds = %2
  %13 = load i64, ptr %4, align 8, !tbaa !11
  store i64 %13, ptr %3, align 8
  br label %55

14:                                               ; preds = %2
  %15 = load i32, ptr %5, align 4, !tbaa !7
  %16 = icmp ne i32 %15, 0
  br i1 %16, label %29, label %17

17:                                               ; preds = %14
  call void @llvm.lifetime.start.p0(i64 4, ptr %6) #28
  store i32 0, ptr %6, align 4, !tbaa !7
  call void @llvm.lifetime.start.p0(i64 8, ptr %7) #28
  %18 = load i64, ptr %4, align 8, !tbaa !11
  %19 = load i32, ptr %5, align 4, !tbaa !7
  %20 = call double @rb_str_to_dbl_raise(i64 noundef %18, i32 noundef 1, i32 noundef %19, ptr noundef %6)
  store double %20, ptr %7, align 8, !tbaa !83
  %21 = load i32, ptr %6, align 4, !tbaa !7
  %22 = icmp ne i32 %21, 0
  br i1 %22, label %23, label %24

23:                                               ; preds = %17
  br label %27

24:                                               ; preds = %17
  %25 = load double, ptr %7, align 8, !tbaa !83
  %26 = call i64 @rb_float_new_inline(double noundef %25)
  br label %27

27:                                               ; preds = %24, %23
  %28 = phi i64 [ 4, %23 ], [ %26, %24 ]
  store i64 %28, ptr %3, align 8
  call void @llvm.lifetime.end.p0(i64 8, ptr %7) #28
  call void @llvm.lifetime.end.p0(i64 4, ptr %6) #28
  br label %55

29:                                               ; preds = %14
  %30 = load i64, ptr %4, align 8, !tbaa !11
  %31 = call double @rb_str_to_dbl(i64 noundef %30, i32 noundef 1)
  %32 = call i64 @rb_float_new_inline(double noundef %31)
  store i64 %32, ptr %3, align 8
  br label %55

33:                                               ; preds = %2
  %34 = load i64, ptr %4, align 8, !tbaa !11
  %35 = call zeroext i1 @RB_SPECIAL_CONST_P(i64 noundef %34) #27
  br i1 %35, label %36, label %40

36:                                               ; preds = %33
  %37 = load i32, ptr %5, align 4, !tbaa !7
  %38 = icmp ne i32 %37, 0
  br i1 %38, label %40, label %39

39:                                               ; preds = %36
  store i64 4, ptr %3, align 8
  br label %55

40:                                               ; preds = %36, %33
  br label %41

41:                                               ; preds = %40, %2
  %42 = load i32, ptr %5, align 4, !tbaa !7
  %43 = icmp ne i32 %42, 0
  br i1 %43, label %52, label %44

44:                                               ; preds = %41
  call void @llvm.lifetime.start.p0(i64 4, ptr %8) #28
  call void @llvm.lifetime.start.p0(i64 8, ptr %9) #28
  %45 = load i64, ptr %4, align 8, !tbaa !11
  %46 = call i64 @rb_protect(ptr noundef @convert_type_to_float_protected, i64 noundef %45, ptr noundef %8)
  store i64 %46, ptr %9, align 8, !tbaa !11
  %47 = load i32, ptr %8, align 4, !tbaa !7
  %48 = icmp ne i32 %47, 0
  br i1 %48, label %49, label %50

49:                                               ; preds = %44
  call void @rb_set_errinfo(i64 noundef 4)
  br label %50

50:                                               ; preds = %49, %44
  %51 = load i64, ptr %9, align 8, !tbaa !11
  store i64 %51, ptr %3, align 8
  call void @llvm.lifetime.end.p0(i64 8, ptr %9) #28
  call void @llvm.lifetime.end.p0(i64 4, ptr %8) #28
  br label %55

52:                                               ; preds = %41
  %53 = load i64, ptr %4, align 8, !tbaa !11
  %54 = call i64 @rb_convert_type_with_id(i64 noundef %53, i32 noundef 4, ptr noundef @.str.20, i64 noundef 3393)
  store i64 %54, ptr %3, align 8
  br label %55

55:                                               ; preds = %52, %50, %39, %29, %27, %12
  %56 = load i64, ptr %3, align 8
  ret i64 %56
}