; Function Attrs: nounwind sspstrong uwtable
define internal fastcc i64 @rb_convert_to_float(i64 noundef %0, i32 noundef range(i32 0, 2) %1) unnamed_addr #2 {
  %3 = alloca i64, align 8
  %4 = alloca i32, align 4
  %5 = alloca i32, align 4
  store i64 %0, ptr %3, align 8, !tbaa !7
  %6 = call fastcc i32 @to_float(ptr noundef %3, i32 noundef %1)
  switch i32 %6, label %54 [
    i32 4, label %7
    i32 5, label %9
    i32 0, label %47
  ]

7:                                                ; preds = %2
  %8 = load i64, ptr %3, align 8, !tbaa !7
  br label %rb_float_new_inline.exit16

9:                                                ; preds = %2
  %.not = icmp eq i32 %1, 0
  br i1 %.not, label %10, label %30

10:                                               ; preds = %9
  call void @llvm.lifetime.start.p0(i64 4, ptr nonnull %4) #23
  store i32 0, ptr %4, align 4, !tbaa !79
  %11 = load i64, ptr %3, align 8, !tbaa !7
  %12 = call fastcc double @rb_str_to_dbl_raise(i64 noundef %11, i32 noundef 1, i32 noundef 0, ptr noundef nonnull %4)
  %13 = load i32, ptr %4, align 4, !tbaa !79
  %.not10 = icmp eq i32 %13, 0
  br i1 %.not10, label %14, label %rb_float_new_inline.exit

14:                                               ; preds = %10
  %15 = bitcast double %12 to i64
  %cond.i = icmp eq i64 %15, 3458764513820540928
  br i1 %cond.i, label %27, label %16

16:                                               ; preds = %14
  %17 = lshr i64 %15, 60
  %18 = trunc nuw nsw i64 %17 to i32
  %19 = and i32 %18, 7
  %20 = add nsw i32 %19, -3
  %.not7.i = icmp ult i32 %20, 2
  br i1 %.not7.i, label %21, label %25

21:                                               ; preds = %16
  %22 = call noundef i64 @llvm.fshl.i64(i64 range(i64 3458764513820540929, 3458764513820540928) %15, i64 range(i64 3458764513820540929, 3458764513820540928) %15, i64 3)
  %23 = and i64 %22, -4
  %24 = or disjoint i64 %23, 2
  br label %rb_float_new_inline.exit

25:                                               ; preds = %16
  %26 = icmp eq i64 %15, 0
  br i1 %26, label %rb_float_new_inline.exit, label %27

27:                                               ; preds = %25, %14
  %28 = call i64 @rb_float_new_in_heap(double noundef %12) #23
  br label %rb_float_new_inline.exit

rb_float_new_inline.exit:                         ; preds = %27, %25, %21, %10
  %29 = phi i64 [ 4, %10 ], [ %28, %27 ], [ %24, %21 ], [ -9223372036854775806, %25 ]
  call void @llvm.lifetime.end.p0(i64 4, ptr nonnull %4) #23
  br label %rb_float_new_inline.exit16

30:                                               ; preds = %9
  %31 = load i64, ptr %3, align 8, !tbaa !7
  %32 = tail call fastcc double @rb_str_to_dbl_raise(i64 noundef %31, i32 noundef 1, i32 noundef 1, ptr noundef null)
  %33 = bitcast double %32 to i64
  %cond.i13 = icmp eq i64 %33, 3458764513820540928
  br i1 %cond.i13, label %45, label %34

34:                                               ; preds = %30
  %35 = lshr i64 %33, 60
  %36 = trunc nuw nsw i64 %35 to i32
  %37 = and i32 %36, 7
  %38 = add nsw i32 %37, -3
  %.not7.i14 = icmp ult i32 %38, 2
  br i1 %.not7.i14, label %39, label %43

39:                                               ; preds = %34
  %40 = tail call noundef i64 @llvm.fshl.i64(i64 range(i64 3458764513820540929, 3458764513820540928) %33, i64 range(i64 3458764513820540929, 3458764513820540928) %33, i64 3)
  %41 = and i64 %40, -4
  %42 = or disjoint i64 %41, 2
  br label %rb_float_new_inline.exit16

43:                                               ; preds = %34
  %44 = icmp eq i64 %33, 0
  br i1 %44, label %rb_float_new_inline.exit16, label %45

45:                                               ; preds = %43, %30
  %46 = tail call i64 @rb_float_new_in_heap(double noundef %32) #23
  br label %rb_float_new_inline.exit16

47:                                               ; preds = %2
  %48 = load i64, ptr %3, align 8, !tbaa !7
  %49 = icmp eq i64 %48, 0
  %50 = and i64 %48, 7
  %51 = icmp ne i64 %50, 0
  %52 = or i1 %49, %51
  %53 = icmp eq i32 %1, 0
  %or.cond.not = and i1 %53, %52
  br i1 %or.cond.not, label %rb_float_new_inline.exit16, label %54

54:                                               ; preds = %47, %2
  %.not11 = icmp eq i32 %1, 0
  br i1 %.not11, label %55, label %61

55:                                               ; preds = %54
  call void @llvm.lifetime.start.p0(i64 4, ptr nonnull %5) #23
  %56 = load i64, ptr %3, align 8, !tbaa !7
  %57 = call i64 @rb_protect(ptr noundef nonnull @convert_type_to_float_protected, i64 noundef %56, ptr noundef nonnull %5) #23
  %58 = load i32, ptr %5, align 4, !tbaa !79
  %.not12 = icmp eq i32 %58, 0
  br i1 %.not12, label %60, label %59

59:                                               ; preds = %55
  call void @rb_set_errinfo(i64 noundef 4) #23
  br label %60

60:                                               ; preds = %59, %55
  call void @llvm.lifetime.end.p0(i64 4, ptr nonnull %5) #23
  br label %rb_float_new_inline.exit16

61:                                               ; preds = %54
  %62 = load i64, ptr %3, align 8, !tbaa !7
  %63 = tail call i64 @rb_convert_type_with_id(i64 noundef %62, i32 noundef 4, ptr noundef nonnull @.str.20, i64 noundef 3393)
  br label %rb_float_new_inline.exit16

rb_float_new_inline.exit16:                       ; preds = %45, %43, %39, %47, %61, %60, %rb_float_new_inline.exit, %7
  %.0 = phi i64 [ %63, %61 ], [ %57, %60 ], [ %29, %rb_float_new_inline.exit ], [ %8, %7 ], [ 4, %47 ], [ %46, %45 ], [ %42, %39 ], [ -9223372036854775806, %43 ]
  ret i64 %.0
}